target datalayout = "e-m:e-p270:32:32-p271:32:32-p272:64:64-i64:64-i128:128-f80:128-n8:16:32:64-S128"
target triple = "x86_64-pc-linux-gnu"

%"struct.arrow::TypedChunkLocation.6" = type { i64, i64 }
%"class.std::vector" = type { %"struct.std::_Vector_base" }
%"struct.std::_Vector_base" = type { %"struct.std::_Vector_base<long, std::allocator<long>>::_Vector_impl" }
%"struct.std::_Vector_base<long, std::allocator<long>>::_Vector_impl" = type { %"struct.std::_Vector_base<long, std::allocator<long>>::_Vector_impl_data" }
%"struct.std::_Vector_base<long, std::allocator<long>>::_Vector_impl_data" = type { ptr, ptr, ptr }
%"class.arrow::ChunkResolver" = type <{ %"class.std::vector", %"struct.std::atomic", [4 x i8] }>
%"struct.std::atomic" = type { %"struct.std::__atomic_base" }
%"struct.std::__atomic_base" = type { i32 }

@_ZN5arrow18TypedChunkLocationImEC1Emm = weak_odr unnamed_addr alias void (ptr, i64, i64), ptr @_ZN5arrow18TypedChunkLocationImEC2Emm

; Function Attrs: inlinehint mustprogress nounwind uwtable
define linkonce_odr noundef i32 @_ZN5arrow13ChunkResolver6BisectEmPKmjj(i64 noundef %0, ptr noundef %1, i32 noundef %2, i32 noundef %3) #7 comdat align 2 {
  %5 = alloca i64, align 8
  %6 = alloca ptr, align 8
  %7 = alloca i32, align 4
  %8 = alloca i32, align 4
  %9 = alloca i32, align 4
  %10 = alloca i32, align 4
  %11 = alloca i32, align 4
  store i64 %0, ptr %5, align 8, !tbaa !43
  store ptr %1, ptr %6, align 8, !tbaa !57
  store i32 %2, ptr %7, align 4, !tbaa !8
  store i32 %3, ptr %8, align 4, !tbaa !8
  call void @llvm.lifetime.start.p0(i64 4, ptr %9) #12
  %12 = load i32, ptr %8, align 4, !tbaa !8
  %13 = load i32, ptr %7, align 4, !tbaa !8
  %14 = sub i32 %12, %13
  store i32 %14, ptr %9, align 4, !tbaa !8
  br label %15

15:                                               ; preds = %36, %4
  call void @llvm.lifetime.start.p0(i64 4, ptr %10) #12
  %16 = load i32, ptr %9, align 4, !tbaa !8
  %17 = lshr i32 %16, 1
  store i32 %17, ptr %10, align 4, !tbaa !8
  call void @llvm.lifetime.start.p0(i64 4, ptr %11) #12
  %18 = load i32, ptr %7, align 4, !tbaa !8
  %19 = load i32, ptr %10, align 4, !tbaa !8
  %20 = add i32 %18, %19
  store i32 %20, ptr %11, align 4, !tbaa !8
  %21 = load i64, ptr %5, align 8, !tbaa !43
  %22 = load ptr, ptr %6, align 8, !tbaa !57
  %23 = load i32, ptr %11, align 4, !tbaa !8
  %24 = zext i32 %23 to i64
  %25 = getelementptr inbounds nuw i64, ptr %22, i64 %24
  %26 = load i64, ptr %25, align 8, !tbaa !43
  %27 = icmp uge i64 %21, %26
  br i1 %27, label %28, label %33

28:                                               ; preds = %15
  %29 = load i32, ptr %11, align 4, !tbaa !8
  store i32 %29, ptr %7, align 4, !tbaa !8
  %30 = load i32, ptr %10, align 4, !tbaa !8
  %31 = load i32, ptr %9, align 4, !tbaa !8
  %32 = sub i32 %31, %30
  store i32 %32, ptr %9, align 4, !tbaa !8
  br label %35

33:                                               ; preds = %15
  %34 = load i32, ptr %10, align 4, !tbaa !8
  store i32 %34, ptr %9, align 4, !tbaa !8
  br label %35

35:                                               ; preds = %33, %28
  call void @llvm.lifetime.end.p0(i64 4, ptr %11) #12
  call void @llvm.lifetime.end.p0(i64 4, ptr %10) #12
  br label %36

36:                                               ; preds = %35
  %37 = load i32, ptr %9, align 4, !tbaa !8
  %38 = icmp ugt i32 %37, 1
  br i1 %38, label %15, label %39, !llvm.loop !204

39:                                               ; preds = %36
  %40 = load i32, ptr %7, align 4, !tbaa !8
  call void @llvm.lifetime.end.p0(i64 4, ptr %9) #12
  ret i32 %40
}

; Function Attrs: inlinehint mustprogress uwtable
define internal { i64, i64 } @_ZN5arrow12_GLOBAL__N_116ResolveOneInlineImEENS_18TypedChunkLocationIT_EEjPKmS3_ii(i32 noundef %0, ptr noundef %1, i64 noundef %2, i32 noundef %3, i32 noundef %4) #1 {
  %6 = alloca %"struct.arrow::TypedChunkLocation.6", align 8
  %7 = alloca i32, align 4
  %8 = alloca ptr, align 8
  %9 = alloca i64, align 8
  %10 = alloca i32, align 4
  %11 = alloca i32, align 4
  %12 = alloca i64, align 8
  %13 = alloca i32, align 4
  store i32 %0, ptr %7, align 4, !tbaa !8
  store ptr %1, ptr %8, align 8, !tbaa !57
  store i64 %2, ptr %9, align 8, !tbaa !43
  store i32 %3, ptr %10, align 4, !tbaa !8
  store i32 %4, ptr %11, align 4, !tbaa !8
  call void @llvm.lifetime.start.p0(i64 8, ptr %12) #12
  %14 = load i64, ptr %9, align 8, !tbaa !43
  store i64 %14, ptr %12, align 8, !tbaa !43
  %15 = load i64, ptr %12, align 8, !tbaa !43
  %16 = load ptr, ptr %8, align 8, !tbaa !57
  %17 = load i32, ptr %11, align 4, !tbaa !8
  %18 = sext i32 %17 to i64
  %19 = getelementptr inbounds i64, ptr %16, i64 %18
  %20 = load i64, ptr %19, align 8, !tbaa !43
  %21 = icmp uge i64 %15, %20
  br i1 %21, label %22, label %36

22:                                               ; preds = %5
  %23 = load i32, ptr %11, align 4, !tbaa !8
  %24 = load i32, ptr %10, align 4, !tbaa !8
  %25 = icmp eq i32 %23, %24
  br i1 %25, label %35, label %26

26:                                               ; preds = %22
  %27 = load i64, ptr %12, align 8, !tbaa !43
  %28 = load ptr, ptr %8, align 8, !tbaa !57
  %29 = load i32, ptr %11, align 4, !tbaa !8
  %30 = add nsw i32 %29, 1
  %31 = sext i32 %30 to i64
  %32 = getelementptr inbounds i64, ptr %28, i64 %31
  %33 = load i64, ptr %32, align 8, !tbaa !43
  %34 = icmp ult i64 %27, %33
  br i1 %34, label %35, label %36

35:                                               ; preds = %26, %22
  br label %42

36:                                               ; preds = %26, %5
  call void @llvm.lifetime.start.p0(i64 4, ptr %13) #12
  %37 = load i64, ptr %12, align 8, !tbaa !43
  %38 = load ptr, ptr %8, align 8, !tbaa !57
  %39 = load i32, ptr %7, align 4, !tbaa !8
  %40 = call noundef i32 @_ZN5arrow13ChunkResolver6BisectEmPKmjj(i64 noundef %37, ptr noundef %38, i32 noundef 0, i32 noundef %39)
  store i32 %40, ptr %13, align 4, !tbaa !8
  %41 = load i32, ptr %13, align 4, !tbaa !8
  store i32 %41, ptr %11, align 4, !tbaa !8
  call void @llvm.lifetime.end.p0(i64 4, ptr %13) #12
  br label %42

42:                                               ; preds = %36, %35
  %43 = load i32, ptr %11, align 4, !tbaa !8
  %44 = sext i32 %43 to i64
  %45 = load i64, ptr %9, align 8, !tbaa !43
  %46 = load ptr, ptr %8, align 8, !tbaa !57
  %47 = load i32, ptr %11, align 4, !tbaa !8
  %48 = sext i32 %47 to i64
  %49 = getelementptr inbounds i64, ptr %46, i64 %48
  %50 = load i64, ptr %49, align 8, !tbaa !43
  %51 = sub i64 %45, %50
  call void @_ZN5arrow18TypedChunkLocationImEC1Emm(ptr noundef nonnull align 8 dereferenceable(16) %6, i64 noundef %44, i64 noundef %51)
  call void @llvm.lifetime.end.p0(i64 8, ptr %12) #12
  %52 = load { i64, i64 }, ptr %6, align 8
  ret { i64, i64 } %52
}

; Function Attrs: mustprogress nounwind uwtable
define linkonce_odr noundef ptr @_ZNKSt6vectorIlSaIlEE11_M_data_ptrIlEEPT_S4_(ptr noundef nonnull align 8 dereferenceable(24) %0, ptr noundef %1) #0 comdat align 2 {
  %3 = alloca ptr, align 8
  %4 = alloca ptr, align 8
  store ptr %0, ptr %3, align 8, !tbaa !81
  store ptr %1, ptr %4, align 8, !tbaa !57
  %5 = load ptr, ptr %4, align 8, !tbaa !57
  ret ptr %5
}

; Function Attrs: mustprogress uwtable
define internal void @_ZN5arrow12_GLOBAL__N_117ResolveManyInlineImEEvjPKllPKT_PNS_18TypedChunkLocationIS4_EEi(i32 noundef %0, ptr noundef %1, i64 noundef %2, ptr noundef %3, ptr noundef %4, i32 noundef %5) #3 {
  %7 = alloca i32, align 4
  %8 = alloca ptr, align 8
  %9 = alloca i64, align 8
  %10 = alloca ptr, align 8
  %11 = alloca ptr, align 8
  %12 = alloca i32, align 4
  %13 = alloca ptr, align 8
  %14 = alloca i32, align 4
  %15 = alloca i64, align 8
  %16 = alloca i64, align 8
  %17 = alloca %"struct.arrow::TypedChunkLocation.6", align 8
  store i32 %0, ptr %7, align 4, !tbaa !8
  store ptr %1, ptr %8, align 8, !tbaa !57
  store i64 %2, ptr %9, align 8, !tbaa !43
  store ptr %3, ptr %10, align 8, !tbaa !57
  store ptr %4, ptr %11, align 8, !tbaa !48
  store i32 %5, ptr %12, align 4, !tbaa !8
  call void @llvm.lifetime.start.p0(i64 8, ptr %13) #12
  %18 = load ptr, ptr %8, align 8, !tbaa !57
  store ptr %18, ptr %13, align 8, !tbaa !57
  call void @llvm.lifetime.start.p0(i64 4, ptr %14) #12
  %19 = load i32, ptr %7, align 4, !tbaa !8
  %20 = sub i32 %19, 1
  store i32 %20, ptr %14, align 4, !tbaa !8
  call void @llvm.lifetime.start.p0(i64 8, ptr %15) #12
  store i64 0, ptr %15, align 8, !tbaa !43
  br label %21

21:                                               ; preds = %47, %6
  %22 = load i64, ptr %15, align 8, !tbaa !43
  %23 = load i64, ptr %9, align 8, !tbaa !43
  %24 = icmp slt i64 %22, %23
  br i1 %24, label %26, label %25

25:                                               ; preds = %21
  call void @llvm.lifetime.end.p0(i64 8, ptr %15) #12
  br label %50

26:                                               ; preds = %21
  call void @llvm.lifetime.start.p0(i64 8, ptr %16) #12
  %27 = load ptr, ptr %10, align 8, !tbaa !57
  %28 = load i64, ptr %15, align 8, !tbaa !43
  %29 = getelementptr inbounds i64, ptr %27, i64 %28
  %30 = load i64, ptr %29, align 8, !tbaa !43
  store i64 %30, ptr %16, align 8, !tbaa !43
  call void @llvm.lifetime.start.p0(i64 16, ptr %17) #12
  %31 = load i32, ptr %7, align 4, !tbaa !8
  %32 = load ptr, ptr %13, align 8, !tbaa !57
  %33 = load i64, ptr %16, align 8, !tbaa !43
  %34 = load i32, ptr %14, align 4, !tbaa !8
  %35 = load i32, ptr %12, align 4, !tbaa !8
  %36 = call { i64, i64 } @_ZN5arrow12_GLOBAL__N_116ResolveOneInlineImEENS_18TypedChunkLocationIT_EEjPKmS3_ii(i32 noundef %31, ptr noundef %32, i64 noundef %33, i32 noundef %34, i32 noundef %35)
  %37 = getelementptr inbounds nuw { i64, i64 }, ptr %17, i32 0, i32 0
  %38 = extractvalue { i64, i64 } %36, 0
  store i64 %38, ptr %37, align 8
  %39 = getelementptr inbounds nuw { i64, i64 }, ptr %17, i32 0, i32 1
  %40 = extractvalue { i64, i64 } %36, 1
  store i64 %40, ptr %39, align 8
  %41 = load ptr, ptr %11, align 8, !tbaa !48
  %42 = load i64, ptr %15, align 8, !tbaa !43
  %43 = getelementptr inbounds %"struct.arrow::TypedChunkLocation.6", ptr %41, i64 %42
  call void @llvm.memcpy.p0.p0.i64(ptr align 8 %43, ptr align 8 %17, i64 16, i1 false), !tbaa.struct !106
  %44 = getelementptr inbounds nuw %"struct.arrow::TypedChunkLocation.6", ptr %17, i32 0, i32 0
  %45 = load i64, ptr %44, align 8, !tbaa !50
  %46 = trunc i64 %45 to i32
  store i32 %46, ptr %12, align 4, !tbaa !8
  call void @llvm.lifetime.end.p0(i64 16, ptr %17) #12
  call void @llvm.lifetime.end.p0(i64 8, ptr %16) #12
  br label %47

47:                                               ; preds = %26
  %48 = load i64, ptr %15, align 8, !tbaa !43
  %49 = add nsw i64 %48, 1
  store i64 %49, ptr %15, align 8, !tbaa !43
  br label %21, !llvm.loop !107

50:                                               ; preds = %25
  call void @llvm.lifetime.end.p0(i64 4, ptr %14) #12
  call void @llvm.lifetime.end.p0(i64 8, ptr %13) #12
  ret void
}

; Function Attrs: mustprogress nounwind uwtable
define linkonce_odr noundef ptr @_ZNKSt6vectorIlSaIlEE4dataEv(ptr noundef nonnull align 8 dereferenceable(24) %0) #0 comdat align 2 {
  %2 = alloca ptr, align 8
  store ptr %0, ptr %2, align 8, !tbaa !81
  %3 = load ptr, ptr %2, align 8
  %4 = getelementptr inbounds nuw %"struct.std::_Vector_base", ptr %3, i32 0, i32 0
  %5 = getelementptr inbounds nuw %"struct.std::_Vector_base<long, std::allocator<long>>::_Vector_impl_data", ptr %4, i32 0, i32 0
  %6 = load ptr, ptr %5, align 8, !tbaa !89
  %7 = call noundef ptr @_ZNKSt6vectorIlSaIlEE11_M_data_ptrIlEEPT_S4_(ptr noundef nonnull align 8 dereferenceable(24) %3, ptr noundef %6) #12
  ret ptr %7
}

; Function Attrs: mustprogress nounwind uwtable
define linkonce_odr noundef i64 @_ZNKSt6vectorIlSaIlEE4sizeEv(ptr noundef nonnull align 8 dereferenceable(24) %0) #0 comdat align 2 {
  %2 = alloca ptr, align 8
  store ptr %0, ptr %2, align 8, !tbaa !81
  %3 = load ptr, ptr %2, align 8
  %4 = getelementptr inbounds nuw %"struct.std::_Vector_base", ptr %3, i32 0, i32 0
  %5 = getelementptr inbounds nuw %"struct.std::_Vector_base<long, std::allocator<long>>::_Vector_impl_data", ptr %4, i32 0, i32 1
  %6 = load ptr, ptr %5, align 8, !tbaa !91
  %7 = getelementptr inbounds nuw %"struct.std::_Vector_base", ptr %3, i32 0, i32 0
  %8 = getelementptr inbounds nuw %"struct.std::_Vector_base<long, std::allocator<long>>::_Vector_impl_data", ptr %7, i32 0, i32 0
  %9 = load ptr, ptr %8, align 8, !tbaa !89
  %10 = ptrtoint ptr %6 to i64
  %11 = ptrtoint ptr %9 to i64
  %12 = sub i64 %10, %11
  %13 = sdiv exact i64 %12, 8
  ret i64 %13
}

; Function Attrs: mustprogress uwtable
define void @_ZNK5arrow13ChunkResolver15ResolveManyImplElPKmPNS_18TypedChunkLocationImEEi(ptr noundef nonnull align 8 dereferenceable(28) %0, i64 noundef %1, ptr noundef %2, ptr noundef %3, i32 noundef %4) #3 align 2 {
  %6 = alloca ptr, align 8
  %7 = alloca i64, align 8
  %8 = alloca ptr, align 8
  %9 = alloca ptr, align 8
  %10 = alloca i32, align 4
  store ptr %0, ptr %6, align 8, !tbaa !53
  store i64 %1, ptr %7, align 8, !tbaa !43
  store ptr %2, ptr %8, align 8, !tbaa !57
  store ptr %3, ptr %9, align 8, !tbaa !48
  store i32 %4, ptr %10, align 4, !tbaa !8
  %11 = load ptr, ptr %6, align 8
  %12 = getelementptr inbounds nuw %"class.arrow::ChunkResolver", ptr %11, i32 0, i32 0
  %13 = call noundef i64 @_ZNKSt6vectorIlSaIlEE4sizeEv(ptr noundef nonnull align 8 dereferenceable(24) %12) #12
  %14 = trunc i64 %13 to i32
  %15 = getelementptr inbounds nuw %"class.arrow::ChunkResolver", ptr %11, i32 0, i32 0
  %16 = call noundef ptr @_ZNKSt6vectorIlSaIlEE4dataEv(ptr noundef nonnull align 8 dereferenceable(24) %15) #12
  %17 = load i64, ptr %7, align 8, !tbaa !43
  %18 = load ptr, ptr %8, align 8, !tbaa !57
  %19 = load ptr, ptr %9, align 8, !tbaa !48
  %20 = load i32, ptr %10, align 4, !tbaa !8
  call void @_ZN5arrow12_GLOBAL__N_117ResolveManyInlineImEEvjPKllPKT_PNS_18TypedChunkLocationIS4_EEi(i32 noundef %14, ptr noundef %16, i64 noundef %17, ptr noundef %18, ptr noundef %19, i32 noundef %20)
  ret void
}