; Function Attrs: mustprogress uwtable
define void @_ZNK5arrow13ChunkResolver15ResolveManyImplElPKmPNS_18TypedChunkLocationImEEi(ptr noundef nonnull readonly align 8 captures(none) dereferenceable(28) %0, i64 noundef %1, ptr noundef readonly captures(none) %2, ptr noundef writeonly captures(none) %3, i32 noundef %4) local_unnamed_addr #4 align 2 {
  %6 = alloca %"struct.arrow::TypedChunkLocation.6", align 8
  %7 = getelementptr inbounds nuw i8, ptr %0, i64 8
  %8 = load ptr, ptr %7, align 8, !tbaa !45
  %9 = load ptr, ptr %0, align 8, !tbaa !40
  %10 = ptrtoint ptr %8 to i64
  %11 = ptrtoint ptr %9 to i64
  %12 = sub i64 %10, %11
  %13 = lshr exact i64 %12, 3
  %14 = trunc i64 %13 to i32
  %15 = add i32 %14, -1
  %16 = icmp sgt i64 %1, 0
  br i1 %16, label %.lr.ph.i, label %_ZN5arrow12_GLOBAL__N_117ResolveManyInlineImEEvjPKllPKT_PNS_18TypedChunkLocationIS4_EEi.exit

.lr.ph.i:                                         ; preds = %5
  %.fca.1.gep.i.i = getelementptr inbounds nuw i8, ptr %6, i64 8
  br label %17

17:                                               ; preds = %_ZN5arrow12_GLOBAL__N_116ResolveOneInlineImEENS_18TypedChunkLocationIT_EEjPKmS3_ii.exit.i, %.lr.ph.i
  %.015.i = phi i32 [ %4, %.lr.ph.i ], [ %40, %_ZN5arrow12_GLOBAL__N_116ResolveOneInlineImEENS_18TypedChunkLocationIT_EEjPKmS3_ii.exit.i ]
  %.01314.i = phi i64 [ 0, %.lr.ph.i ], [ %41, %_ZN5arrow12_GLOBAL__N_116ResolveOneInlineImEENS_18TypedChunkLocationIT_EEjPKmS3_ii.exit.i ]
  %18 = getelementptr inbounds nuw i64, ptr %2, i64 %.01314.i
  %19 = load i64, ptr %18, align 8, !tbaa !44
  call void @llvm.lifetime.start.p0(i64 16, ptr nonnull %6)
  %20 = sext i32 %.015.i to i64
  %21 = getelementptr inbounds i64, ptr %9, i64 %20
  %22 = load i64, ptr %21, align 8, !tbaa !44
  %.not.i.i = icmp ult i64 %19, %22
  br i1 %.not.i.i, label %.preheader, label %23

23:                                               ; preds = %17
  %24 = icmp eq i32 %.015.i, %15
  br i1 %24, label %_ZN5arrow12_GLOBAL__N_116ResolveOneInlineImEENS_18TypedChunkLocationIT_EEjPKmS3_ii.exit.i, label %25

25:                                               ; preds = %23
  %26 = getelementptr i8, ptr %21, i64 8
  %27 = load i64, ptr %26, align 8, !tbaa !44
  %28 = icmp ult i64 %19, %27
  br i1 %28, label %_ZN5arrow12_GLOBAL__N_116ResolveOneInlineImEENS_18TypedChunkLocationIT_EEjPKmS3_ii.exit.i, label %.preheader

.preheader:                                       ; preds = %25, %17
  br label %29

29:                                               ; preds = %.preheader, %29
  %.013.i.i.i = phi i32 [ %.114.i.i.i, %29 ], [ %14, %.preheader ]
  %.0.i.i.i = phi i32 [ %.1.i.i.i, %29 ], [ 0, %.preheader ]
  %30 = lshr i32 %.013.i.i.i, 1
  %31 = add i32 %.0.i.i.i, %30
  %32 = zext i32 %31 to i64
  %33 = getelementptr inbounds nuw i64, ptr %9, i64 %32
  %34 = load i64, ptr %33, align 8, !tbaa !44
  %.not.i.i.i = icmp ult i64 %19, %34
  %35 = sub i32 %.013.i.i.i, %30
  %.114.i.i.i = select i1 %.not.i.i.i, i32 %30, i32 %35
  %.1.i.i.i = select i1 %.not.i.i.i, i32 %.0.i.i.i, i32 %31
  %36 = icmp ugt i32 %.114.i.i.i, 1
  br i1 %36, label %29, label %_ZN5arrow13ChunkResolver6BisectEmPKmjj.exit.loopexit.i.i, !llvm.loop !103

_ZN5arrow13ChunkResolver6BisectEmPKmjj.exit.loopexit.i.i: ; preds = %29
  %.pre.i.i = sext i32 %.1.i.i.i to i64
  %.phi.trans.insert.i.i = getelementptr inbounds i64, ptr %9, i64 %.pre.i.i
  %.pre18.i.i = load i64, ptr %.phi.trans.insert.i.i, align 8, !tbaa !44
  br label %_ZN5arrow12_GLOBAL__N_116ResolveOneInlineImEENS_18TypedChunkLocationIT_EEjPKmS3_ii.exit.i

_ZN5arrow12_GLOBAL__N_116ResolveOneInlineImEENS_18TypedChunkLocationIT_EEjPKmS3_ii.exit.i: ; preds = %_ZN5arrow13ChunkResolver6BisectEmPKmjj.exit.loopexit.i.i, %25, %23
  %37 = phi i64 [ %.pre18.i.i, %_ZN5arrow13ChunkResolver6BisectEmPKmjj.exit.loopexit.i.i ], [ %22, %23 ], [ %22, %25 ]
  %.pre-phi.i.i = phi i64 [ %.pre.i.i, %_ZN5arrow13ChunkResolver6BisectEmPKmjj.exit.loopexit.i.i ], [ %20, %23 ], [ %20, %25 ]
  %38 = sub i64 %19, %37
  call void @_ZN5arrow18TypedChunkLocationImEC1Emm(ptr noundef nonnull align 8 dereferenceable(16) %6, i64 noundef %.pre-phi.i.i, i64 noundef %38)
  %.fca.0.load.i.i = load i64, ptr %6, align 8
  %.fca.1.load.i.i = load i64, ptr %.fca.1.gep.i.i, align 8
  call void @llvm.lifetime.end.p0(i64 16, ptr nonnull %6)
  %39 = getelementptr inbounds nuw %"struct.arrow::TypedChunkLocation.6", ptr %3, i64 %.01314.i
  store i64 %.fca.0.load.i.i, ptr %39, align 8, !tbaa !44
  %.sroa.5.0..sroa_idx.i = getelementptr inbounds nuw i8, ptr %39, i64 8
  store i64 %.fca.1.load.i.i, ptr %.sroa.5.0..sroa_idx.i, align 8, !tbaa !44
  %40 = trunc i64 %.fca.0.load.i.i to i32
  %41 = add nuw nsw i64 %.01314.i, 1
  %exitcond.not.i = icmp eq i64 %41, %1
  br i1 %exitcond.not.i, label %_ZN5arrow12_GLOBAL__N_117ResolveManyInlineImEEvjPKllPKT_PNS_18TypedChunkLocationIS4_EEi.exit, label %17, !llvm.loop !109

_ZN5arrow12_GLOBAL__N_117ResolveManyInlineImEEvjPKllPKT_PNS_18TypedChunkLocationIS4_EEi.exit: ; preds = %_ZN5arrow12_GLOBAL__N_116ResolveOneInlineImEENS_18TypedChunkLocationIT_EEjPKmS3_ii.exit.i, %5
  ret void
}